
kernel.elf:     file format elf32-tradbigmips


Disassembly of section .bss:

807f0000 <_sbss>:
	...

807f0080 <TCBT>:
	...

807f0088 <current>:
807f0088:	00000000 	nop

Disassembly of section .MIPS.abiflags:

807f0090 <.MIPS.abiflags>:
807f0090:	00002002 	srl	a0,zero,0x0
807f0094:	01010005 	lsa	zero,t0,at,0x1
	...

Disassembly of section .text.init:

80000000 <INITLOCATE>:
80000000:	3c1a8000 	lui	k0,0x8000
80000004:	275a12a8 	addiu	k0,k0,4776
80000008:	03400008 	jr	k0
8000000c:	00000000 	nop

Disassembly of section .text.ebase:

80001000 <TLBREFILL>:
80001000:	00000000 	nop

Disassembly of section .text.ebase180:

80001180 <EHANDLERLOCATE>:
80001180:	3c1a8000 	lui	k0,0x8000
80001184:	275a16a8 	addiu	k0,k0,5800
80001188:	03400008 	jr	k0
8000118c:	00000000 	nop

Disassembly of section .text:

80001190 <WRITESERIAL>:
80001190:	3c09bfd0 	lui	t1,0xbfd0

80001194 <.TESTW>:
80001194:	812803fc 	lb	t0,1020(t1)
80001198:	31080001 	andi	t0,t0,0x1
8000119c:	15000003 	bnez	t0,800011ac <.WSERIAL>
800011a0:	00000000 	nop
800011a4:	08000465 	j	80001194 <.TESTW>
800011a8:	00000000 	nop

800011ac <.WSERIAL>:
800011ac:	3c09bfd0 	lui	t1,0xbfd0
800011b0:	a12403f8 	sb	a0,1016(t1)
800011b4:	03e00008 	jr	ra
800011b8:	00000000 	nop

800011bc <READSERIAL>:
800011bc:	3c09bfd0 	lui	t1,0xbfd0

800011c0 <.TESTR>:
800011c0:	812803fc 	lb	t0,1020(t1)
800011c4:	31080002 	andi	t0,t0,0x2
800011c8:	15000003 	bnez	t0,800011d8 <.RSERIAL>
800011cc:	00000000 	nop
800011d0:	08000470 	j	800011c0 <.TESTR>
800011d4:	00000000 	nop

800011d8 <.RSERIAL>:
800011d8:	3c09bfd0 	lui	t1,0xbfd0
800011dc:	812203f8 	lb	v0,1016(t1)
800011e0:	03e00008 	jr	ra
800011e4:	00000000 	nop

800011e8 <READSERIALWORD>:
800011e8:	27bdffec 	addiu	sp,sp,-20
800011ec:	afbf0000 	sw	ra,0(sp)
800011f0:	afb00004 	sw	s0,4(sp)
800011f4:	afb10008 	sw	s1,8(sp)
800011f8:	afb2000c 	sw	s2,12(sp)
800011fc:	afb30010 	sw	s3,16(sp)
80001200:	0c00046f 	jal	800011bc <READSERIAL>
80001204:	00000000 	nop
80001208:	00028025 	or	s0,zero,v0
8000120c:	0c00046f 	jal	800011bc <READSERIAL>
80001210:	00000000 	nop
80001214:	00028825 	or	s1,zero,v0
80001218:	0c00046f 	jal	800011bc <READSERIAL>
8000121c:	00000000 	nop
80001220:	00029025 	or	s2,zero,v0
80001224:	0c00046f 	jal	800011bc <READSERIAL>
80001228:	00000000 	nop
8000122c:	00029825 	or	s3,zero,v0
80001230:	321000ff 	andi	s0,s0,0xff
80001234:	327300ff 	andi	s3,s3,0xff
80001238:	325200ff 	andi	s2,s2,0xff
8000123c:	323100ff 	andi	s1,s1,0xff
80001240:	00131025 	or	v0,zero,s3
80001244:	00021200 	sll	v0,v0,0x8
80001248:	00521025 	or	v0,v0,s2
8000124c:	00021200 	sll	v0,v0,0x8
80001250:	00511025 	or	v0,v0,s1
80001254:	00021200 	sll	v0,v0,0x8
80001258:	00501025 	or	v0,v0,s0
8000125c:	8fbf0000 	lw	ra,0(sp)
80001260:	8fb00004 	lw	s0,4(sp)
80001264:	8fb10008 	lw	s1,8(sp)
80001268:	8fb2000c 	lw	s2,12(sp)
8000126c:	8fb30010 	lw	s3,16(sp)
80001270:	27bd0014 	addiu	sp,sp,20
80001274:	03e00008 	jr	ra
80001278:	00000000 	nop

8000127c <monitor_version>:
8000127c:	4d4f4e49 	0x4d4f4e49
80001280:	544f5220 	bnel	v0,t7,80015b04 <UTEST_4MDCT+0x13a50>
80001284:	666f7220 	0x666f7220
80001288:	4d495053 	0x4d495053
8000128c:	3332202d 	andi	s2,t9,0x202d
80001290:	20696e69 	addi	t1,v1,28265
80001294:	7469616c 	jalx	81a585b0 <KERNEL_STACK_INIT+0x12585b0>
80001298:	697a6564 	0x697a6564
8000129c:	2e000000 	sltiu	zero,s0,0
800012a0:	807f0000 	lb	ra,0(v1)
800012a4:	807f008c 	lb	ra,140(v1)

800012a8 <START>:
800012a8:	3c1a807f 	lui	k0,0x807f
800012ac:	275a0000 	addiu	k0,k0,0
800012b0:	3c1b807f 	lui	k1,0x807f
800012b4:	277b008c 	addiu	k1,k1,140

800012b8 <bss_init>:
800012b8:	135b0005 	beq	k0,k1,800012d0 <bss_init_done>
800012bc:	00000000 	nop
800012c0:	af400000 	sw	zero,0(k0)
800012c4:	275a0004 	addiu	k0,k0,4
800012c8:	1000fffb 	b	800012b8 <bss_init>
800012cc:	00000000 	nop

800012d0 <bss_init_done>:
800012d0:	3c1d8080 	lui	sp,0x8080
800012d4:	27bd0000 	addiu	sp,sp,0
800012d8:	03a0f025 	move	s8,sp
800012dc:	3c08807f 	lui	t0,0x807f
800012e0:	25080000 	addiu	t0,t0,0
800012e4:	3c09807f 	lui	t1,0x807f
800012e8:	ad280070 	sw	t0,112(t1)
800012ec:	3c09807f 	lui	t1,0x807f
800012f0:	ad280074 	sw	t0,116(t1)
800012f4:	3c08bfd0 	lui	t0,0xbfd0
800012f8:	34090010 	li	t1,0x10
800012fc:	a10903fc 	sb	t1,1020(t0)
80001300:	34080020 	li	t0,0x20
80001304:	2508ffff 	addiu	t0,t0,-1
80001308:	27bdfffc 	addiu	sp,sp,-4
8000130c:	afa00000 	sw	zero,0(sp)
80001310:	1500fffc 	bnez	t0,80001304 <bss_init_done+0x34>
80001314:	00000000 	nop
80001318:	3c08807f 	lui	t0,0x807f
8000131c:	25080080 	addiu	t0,t0,128
80001320:	ad1d0000 	sw	sp,0(t0)
80001324:	03a07025 	move	t6,sp
80001328:	34080020 	li	t0,0x20
8000132c:	2508ffff 	addiu	t0,t0,-1
80001330:	27bdfffc 	addiu	sp,sp,-4
80001334:	afa00000 	sw	zero,0(sp)
80001338:	1500fffc 	bnez	t0,8000132c <bss_init_done+0x5c>
8000133c:	00000000 	nop
80001340:	3c08807f 	lui	t0,0x807f
80001344:	25080080 	addiu	t0,t0,128
80001348:	ad1d0004 	sw	sp,4(t0)
8000134c:	addd007c 	sw	sp,124(t6)
80001350:	3c0a807f 	lui	t2,0x807f
80001354:	254a0084 	addiu	t2,t2,132
80001358:	8d4a0000 	lw	t2,0(t2)
8000135c:	3c09807f 	lui	t1,0x807f
80001360:	ad2a0088 	sw	t2,136(t1)
80001364:	080004db 	j	8000136c <WELCOME>
80001368:	00000000 	nop

8000136c <WELCOME>:
8000136c:	3c108000 	lui	s0,0x8000
80001370:	2610127c 	addiu	s0,s0,4732
80001374:	82040000 	lb	a0,0(s0)
80001378:	26100001 	addiu	s0,s0,1
8000137c:	0c000464 	jal	80001190 <WRITESERIAL>
80001380:	00000000 	nop
80001384:	82040000 	lb	a0,0(s0)
80001388:	1480fffb 	bnez	a0,80001378 <WELCOME+0xc>
8000138c:	00000000 	nop
80001390:	080004f2 	j	800013c8 <SHELL>
80001394:	00000000 	nop

80001398 <IDLELOOP>:
	...
800013c0:	080004e6 	j	80001398 <IDLELOOP>
800013c4:	00000000 	nop

800013c8 <SHELL>:
800013c8:	0c00046f 	jal	800011bc <READSERIAL>
800013cc:	00000000 	nop
800013d0:	34080052 	li	t0,0x52
800013d4:	10480026 	beq	v0,t0,80001470 <.OP_R>
800013d8:	00000000 	nop
800013dc:	34080044 	li	t0,0x44
800013e0:	10480034 	beq	v0,t0,800014b4 <.OP_D>
800013e4:	00000000 	nop
800013e8:	34080041 	li	t0,0x41
800013ec:	10480046 	beq	v0,t0,80001508 <.OP_A>
800013f0:	00000000 	nop
800013f4:	34080047 	li	t0,0x47
800013f8:	10480059 	beq	v0,t0,80001560 <.OP_G>
800013fc:	00000000 	nop
80001400:	34080054 	li	t0,0x54
80001404:	10480003 	beq	v0,t0,80001414 <.OP_T>
80001408:	00000000 	nop
8000140c:	080005a8 	j	800016a0 <.DONE>
80001410:	00000000 	nop

80001414 <.OP_T>:
80001414:	0c00047a 	jal	800011e8 <READSERIALWORD>
80001418:	00000000 	nop
8000141c:	27bdffe8 	addiu	sp,sp,-24
80001420:	afb00000 	sw	s0,0(sp)
80001424:	afb10004 	sw	s1,4(sp)
80001428:	2410ffff 	li	s0,-1
8000142c:	afb0000c 	sw	s0,12(sp)
80001430:	afb00010 	sw	s0,16(sp)
80001434:	afb00014 	sw	s0,20(sp)
80001438:	3411000c 	li	s1,0xc
8000143c:	27b0000c 	addiu	s0,sp,12
80001440:	82040000 	lb	a0,0(s0)
80001444:	2631ffff 	addiu	s1,s1,-1
80001448:	0c000464 	jal	80001190 <WRITESERIAL>
8000144c:	00000000 	nop
80001450:	26100001 	addiu	s0,s0,1
80001454:	1620fffa 	bnez	s1,80001440 <.OP_T+0x2c>
80001458:	00000000 	nop
8000145c:	8fb00000 	lw	s0,0(sp)
80001460:	8fb10004 	lw	s1,4(sp)
80001464:	27bd0018 	addiu	sp,sp,24
80001468:	080005a8 	j	800016a0 <.DONE>
8000146c:	00000000 	nop

80001470 <.OP_R>:
80001470:	27bdfff8 	addiu	sp,sp,-8
80001474:	afb00000 	sw	s0,0(sp)
80001478:	afb10004 	sw	s1,4(sp)
8000147c:	3c10807f 	lui	s0,0x807f
80001480:	34110078 	li	s1,0x78
80001484:	82040000 	lb	a0,0(s0)
80001488:	2631ffff 	addiu	s1,s1,-1
8000148c:	0c000464 	jal	80001190 <WRITESERIAL>
80001490:	00000000 	nop
80001494:	26100001 	addiu	s0,s0,1
80001498:	1620fffa 	bnez	s1,80001484 <.OP_R+0x14>
8000149c:	00000000 	nop
800014a0:	8fb00000 	lw	s0,0(sp)
800014a4:	8fb10004 	lw	s1,4(sp)
800014a8:	27bd0008 	addiu	sp,sp,8
800014ac:	080005a8 	j	800016a0 <.DONE>
800014b0:	00000000 	nop

800014b4 <.OP_D>:
800014b4:	27bdfff8 	addiu	sp,sp,-8
800014b8:	afb00000 	sw	s0,0(sp)
800014bc:	afb10004 	sw	s1,4(sp)
800014c0:	0c00047a 	jal	800011e8 <READSERIALWORD>
800014c4:	00000000 	nop
800014c8:	00408025 	move	s0,v0
800014cc:	0c00047a 	jal	800011e8 <READSERIALWORD>
800014d0:	00000000 	nop
800014d4:	00408825 	move	s1,v0
800014d8:	82040000 	lb	a0,0(s0)
800014dc:	2631ffff 	addiu	s1,s1,-1
800014e0:	0c000464 	jal	80001190 <WRITESERIAL>
800014e4:	00000000 	nop
800014e8:	26100001 	addiu	s0,s0,1
800014ec:	1620fffa 	bnez	s1,800014d8 <.OP_D+0x24>
800014f0:	00000000 	nop
800014f4:	8fb00000 	lw	s0,0(sp)
800014f8:	8fb10004 	lw	s1,4(sp)
800014fc:	27bd0008 	addiu	sp,sp,8
80001500:	080005a8 	j	800016a0 <.DONE>
80001504:	00000000 	nop

80001508 <.OP_A>:
80001508:	27bdfff8 	addiu	sp,sp,-8
8000150c:	afb00000 	sw	s0,0(sp)
80001510:	afb10004 	sw	s1,4(sp)
80001514:	0c00047a 	jal	800011e8 <READSERIALWORD>
80001518:	00000000 	nop
8000151c:	00408025 	move	s0,v0
80001520:	0c00047a 	jal	800011e8 <READSERIALWORD>
80001524:	00000000 	nop
80001528:	00408825 	move	s1,v0
8000152c:	00118882 	srl	s1,s1,0x2
80001530:	0c00047a 	jal	800011e8 <READSERIALWORD>
80001534:	00000000 	nop
80001538:	ae020000 	sw	v0,0(s0)
8000153c:	2631ffff 	addiu	s1,s1,-1
80001540:	26100004 	addiu	s0,s0,4
80001544:	1620fffa 	bnez	s1,80001530 <.OP_A+0x28>
80001548:	00000000 	nop
8000154c:	8fb00000 	lw	s0,0(sp)
80001550:	8fb10004 	lw	s1,4(sp)
80001554:	27bd0008 	addiu	sp,sp,8
80001558:	080005a8 	j	800016a0 <.DONE>
8000155c:	00000000 	nop

80001560 <.OP_G>:
80001560:	0c00047a 	jal	800011e8 <READSERIALWORD>
80001564:	00000000 	nop
80001568:	34040006 	li	a0,0x6
8000156c:	0c000464 	jal	80001190 <WRITESERIAL>
80001570:	00000000 	nop
80001574:	0040d025 	move	k0,v0
80001578:	3c1f807f 	lui	ra,0x807f
8000157c:	27ff0000 	addiu	ra,ra,0
80001580:	afe20078 	sw	v0,120(ra)
80001584:	affd007c 	sw	sp,124(ra)
80001588:	8fe10000 	lw	at,0(ra)
8000158c:	8fe20004 	lw	v0,4(ra)
80001590:	8fe30008 	lw	v1,8(ra)
80001594:	8fe4000c 	lw	a0,12(ra)
80001598:	8fe50010 	lw	a1,16(ra)
8000159c:	8fe60014 	lw	a2,20(ra)
800015a0:	8fe70018 	lw	a3,24(ra)
800015a4:	8fe8001c 	lw	t0,28(ra)
800015a8:	8fe90020 	lw	t1,32(ra)
800015ac:	8fea0024 	lw	t2,36(ra)
800015b0:	8feb0028 	lw	t3,40(ra)
800015b4:	8fec002c 	lw	t4,44(ra)
800015b8:	8fed0030 	lw	t5,48(ra)
800015bc:	8fee0034 	lw	t6,52(ra)
800015c0:	8fef0038 	lw	t7,56(ra)
800015c4:	8ff0003c 	lw	s0,60(ra)
800015c8:	8ff10040 	lw	s1,64(ra)
800015cc:	8ff20044 	lw	s2,68(ra)
800015d0:	8ff30048 	lw	s3,72(ra)
800015d4:	8ff4004c 	lw	s4,76(ra)
800015d8:	8ff50050 	lw	s5,80(ra)
800015dc:	8ff60054 	lw	s6,84(ra)
800015e0:	8ff70058 	lw	s7,88(ra)
800015e4:	8ff8005c 	lw	t8,92(ra)
800015e8:	8ff90060 	lw	t9,96(ra)
800015ec:	8ffc006c 	lw	gp,108(ra)
800015f0:	8ffd0070 	lw	sp,112(ra)
800015f4:	8ffe0074 	lw	s8,116(ra)
800015f8:	3c1f8000 	lui	ra,0x8000
800015fc:	27ff160c 	addiu	ra,ra,5644
80001600:	00000000 	nop
80001604:	03400008 	jr	k0
80001608:	00000000 	nop

8000160c <.USERRET2>:
8000160c:	00000000 	nop
80001610:	3c1f807f 	lui	ra,0x807f
80001614:	27ff0000 	addiu	ra,ra,0
80001618:	afe10000 	sw	at,0(ra)
8000161c:	afe20004 	sw	v0,4(ra)
80001620:	afe30008 	sw	v1,8(ra)
80001624:	afe4000c 	sw	a0,12(ra)
80001628:	afe50010 	sw	a1,16(ra)
8000162c:	afe60014 	sw	a2,20(ra)
80001630:	afe70018 	sw	a3,24(ra)
80001634:	afe8001c 	sw	t0,28(ra)
80001638:	afe90020 	sw	t1,32(ra)
8000163c:	afea0024 	sw	t2,36(ra)
80001640:	afeb0028 	sw	t3,40(ra)
80001644:	afec002c 	sw	t4,44(ra)
80001648:	afed0030 	sw	t5,48(ra)
8000164c:	afee0034 	sw	t6,52(ra)
80001650:	afef0038 	sw	t7,56(ra)
80001654:	aff0003c 	sw	s0,60(ra)
80001658:	aff10040 	sw	s1,64(ra)
8000165c:	aff20044 	sw	s2,68(ra)
80001660:	aff30048 	sw	s3,72(ra)
80001664:	aff4004c 	sw	s4,76(ra)
80001668:	aff50050 	sw	s5,80(ra)
8000166c:	aff60054 	sw	s6,84(ra)
80001670:	aff70058 	sw	s7,88(ra)
80001674:	aff8005c 	sw	t8,92(ra)
80001678:	aff90060 	sw	t9,96(ra)
8000167c:	affc006c 	sw	gp,108(ra)
80001680:	affd0070 	sw	sp,112(ra)
80001684:	affe0074 	sw	s8,116(ra)
80001688:	8ffd007c 	lw	sp,124(ra)
8000168c:	34040007 	li	a0,0x7
80001690:	0c000464 	jal	80001190 <WRITESERIAL>
80001694:	00000000 	nop
80001698:	080005a8 	j	800016a0 <.DONE>
8000169c:	00000000 	nop

800016a0 <.DONE>:
800016a0:	080004f2 	j	800013c8 <SHELL>
800016a4:	00000000 	nop

800016a8 <EXCEPTIONHANDLER>:
800016a8:	1000ffff 	b	800016a8 <EXCEPTIONHANDLER>
800016ac:	00000000 	nop

800016b0 <SCHEDULE>:
800016b0:	1000ffff 	b	800016b0 <SCHEDULE>
800016b4:	00000000 	nop
	...

80002000 <UTEST_SIMPLE>:
80002000:	24420001 	addiu	v0,v0,1
80002004:	03e00008 	jr	ra
80002008:	00000000 	nop

8000200c <UTEST_1PTB>:
8000200c:	3c080400 	lui	t0,0x400
	...
8000201c:	2508ffff 	addiu	t0,t0,-1
80002020:	34090000 	li	t1,0x0
80002024:	340a0001 	li	t2,0x1
80002028:	340b0002 	li	t3,0x2
8000202c:	1500fffb 	bnez	t0,8000201c <UTEST_1PTB+0x10>
80002030:	00000000 	nop
80002034:	00000000 	nop
80002038:	03e00008 	jr	ra
8000203c:	00000000 	nop

80002040 <UTEST_2DCT>:
80002040:	3c080100 	lui	t0,0x100
80002044:	34090001 	li	t1,0x1
80002048:	340a0002 	li	t2,0x2
8000204c:	340b0003 	li	t3,0x3
80002050:	01495026 	xor	t2,t2,t1
80002054:	012a4826 	xor	t1,t1,t2
80002058:	01495026 	xor	t2,t2,t1
8000205c:	016a5826 	xor	t3,t3,t2
80002060:	014b5026 	xor	t2,t2,t3
80002064:	016a5826 	xor	t3,t3,t2
80002068:	012b4826 	xor	t1,t1,t3
8000206c:	01695826 	xor	t3,t3,t1
80002070:	012b4826 	xor	t1,t1,t3
80002074:	2508ffff 	addiu	t0,t0,-1
80002078:	1500fff5 	bnez	t0,80002050 <UTEST_2DCT+0x10>
8000207c:	00000000 	nop
80002080:	03e00008 	jr	ra
80002084:	00000000 	nop

80002088 <UTEST_3CCT>:
80002088:	3c080400 	lui	t0,0x400
8000208c:	15000003 	bnez	t0,8000209c <UTEST_3CCT+0x14>
80002090:	00000000 	nop
80002094:	03e00008 	jr	ra
80002098:	00000000 	nop
8000209c:	08000829 	j	800020a4 <UTEST_3CCT+0x1c>
800020a0:	00000000 	nop
800020a4:	2508ffff 	addiu	t0,t0,-1
800020a8:	08000823 	j	8000208c <UTEST_3CCT+0x4>
800020ac:	2508ffff 	addiu	t0,t0,-1
800020b0:	00000000 	nop

800020b4 <UTEST_4MDCT>:
800020b4:	3c080200 	lui	t0,0x200
800020b8:	27bdfffc 	addiu	sp,sp,-4
800020bc:	afa80000 	sw	t0,0(sp)
800020c0:	8fa90000 	lw	t1,0(sp)
800020c4:	2529ffff 	addiu	t1,t1,-1
800020c8:	afa90000 	sw	t1,0(sp)
800020cc:	8fa80000 	lw	t0,0(sp)
800020d0:	1500fffa 	bnez	t0,800020bc <UTEST_4MDCT+0x8>
800020d4:	00000000 	nop
800020d8:	27bd0004 	addiu	sp,sp,4
800020dc:	03e00008 	jr	ra
800020e0:	00000000 	nop

Disassembly of section .reginfo:

00000000 <.reginfo>:
   0:	a00f0314 	sb	t7,788(zero)
	...

Disassembly of section .gnu.attributes:

00000000 <.gnu.attributes>:
   0:	41000000 	mftc0	zero,c0_index
   4:	0f676e75 	jal	d9db9d4 <INITLOCATE-0x7262462c>
   8:	00010000 	sll	zero,at,0x0
   c:	00070405 	0x70405

Disassembly of section .debug_line:

00000000 <.debug_line>:
   0:	00000076 	tne	zero,zero,0x1
   4:	00020000 	sll	zero,v0,0x0
   8:	00230101 	0x230101
   c:	fb0e0d00 	sdc2	$14,3328(t8)
  10:	01010101 	0x1010101
  14:	00000001 	movf	zero,zero,$fcc0
  18:	0000016b 	0x16b
  1c:	65726e00 	0x65726e00
  20:	00757469 	0x757469
  24:	6c732e53 	0x6c732e53
  28:	00010000 	sll	zero,at,0x0
  2c:	00000502 	srl	zero,zero,0x14
  30:	80001190 	lb	zero,4496(zero)
  34:	030e014c 	syscall	0xc3805
  38:	4b4b4b4b 	c2	0x14b4b4b
  3c:	4b4c4b4b 	c2	0x14c4b4b
  40:	4b030a4a 	c2	0x1030a4a
  44:	4c4b4b4b 	0x4c4b4b4b
  48:	4f4b4c4b 	c3	0x14b4c4b
  4c:	4b4b0318 	c2	0x14b0318
  50:	4a4b4b4b 	c2	0x4b4b4b
  54:	4b4b4c4b 	c2	0x14b4c4b
  58:	4b4b4b4b 	c2	0x14b4b4b
  5c:	4b4b4b4b 	c2	0x14b4b4b
  60:	4b4b4c4b 	c2	0x14b4c4b
  64:	4b4b4b4b 	c2	0x14b4b4b
  68:	4b4b4b4b 	c2	0x14b4b4b
  6c:	4b4c4b4b 	c2	0x14c4b4b
  70:	4b4b4b4b 	c2	0x14b4b4b
  74:	4b020400 	c2	0x1020400
  78:	01010000 	0x1010000
  7c:	005b0002 	0x5b0002
  80:	00000022 	neg	zero,zero
  84:	0101fb0e 	0x101fb0e
  88:	0d000101 	jal	4000404 <INITLOCATE-0x7bfffbfc>
  8c:	01010000 	0x1010000
  90:	00010000 	sll	zero,at,0x0
  94:	016b6572 	tlt	t3,t3,0x195
  98:	6e000065 	0x6e000065
  9c:	7665632e 	jalx	9958cb8 <INITLOCATE-0x766a7348>
  a0:	53000100 	beqzl	t8,4a4 <INITLOCATE-0x7ffffb5c>
  a4:	00000005 	lsa	zero,zero,zero,0x1
  a8:	02800000 	0x2800000
  ac:	00030a01 	0x30a01
  b0:	4b4b4b02 	c2	0x14b4b02
  b4:	04000101 	bltz	zero,4bc <INITLOCATE-0x7ffffb44>
  b8:	00050280 	sll	zero,a1,0xa
  bc:	00118003 	sra	s0,s1,0x0
  c0:	11014b4b 	beq	t0,at,12df0 <INITLOCATE-0x7ffed210>
  c4:	4b020400 	c2	0x1020400
  c8:	01010005 	lsa	zero,t0,at,0x1
  cc:	02800010 	0x2800010
  d0:	00032201 	0x32201
  d4:	02040001 	movf	zero,s0,$fcc1
  d8:	01000000 	0x1000000
  dc:	89000200 	lwl	zero,512(t0)
  e0:	00002201 	0x2201
  e4:	01fb0e0d 	break	0x1fb,0x38
  e8:	00010101 	0x10101
  ec:	01000000 	0x1000000
  f0:	01000001 	movf	zero,t0,$fcc0
  f4:	6b65726e 	0x6b65726e
  f8:	0000696e 	0x696e
  fc:	69742e53 	0x69742e53
 100:	00010000 	sll	zero,at,0x0
 104:	00000502 	srl	zero,zero,0x14
 108:	800012a8 	lb	zero,4776(zero)
 10c:	0331014b 	0x331014b
 110:	4b4b4c4b 	c2	0x14b4c4b
 114:	4b4b4b4b 	c2	0x14b4b4b
 118:	031a4a4b 	0x31a4a4b
 11c:	4b4b4b4b 	c2	0x14b4b4b
 120:	4b4b4b03 	c2	0x14b4b03
 124:	144a4b4b 	bne	v0,t2,12e54 <INITLOCATE-0x7ffed1ac>
 128:	030b4a4c 	syscall	0xc2d29
 12c:	4b4b4b4b 	c2	0x14b4b4b
 130:	4b4b4b03 	c2	0x14b4b03
 134:	0b4a4c4c 	j	d293130 <INITLOCATE-0x72d6ced0>
 138:	4b4b4b4b 	c2	0x14b4b4b
 13c:	4b4b4b4b 	c2	0x14b4b4b
 140:	4c4b4b4b 	0x4c4b4b4b
 144:	4b03f400 	c2	0x103f400
 148:	4a4b4f4b 	c2	0x4b4f4b
 14c:	4b4c4b4b 	c2	0x14c4b4b
 150:	4b4b4b4b 	c2	0x14b4b4b
 154:	4b4f4b4b 	c2	0x14f4b4b
 158:	4b4b4b4b 	c2	0x14b4b4b
 15c:	4b4b4b4b 	c2	0x14b4b4b
 160:	4b020400 	c2	0x1020400
 164:	01010000 	0x1010000
 168:	00f10002 	0xf10002
 16c:	00000023 	negu	zero,zero
 170:	0101fb0e 	0x101fb0e
 174:	0d000101 	jal	4000404 <INITLOCATE-0x7bfffbfc>
 178:	01010000 	0x1010000
 17c:	00010000 	sll	zero,at,0x0
 180:	016b6572 	tlt	t3,t3,0x195
 184:	6e000073 	0x6e000073
 188:	68656c6c 	0x68656c6c
 18c:	2e530001 	sltiu	s3,s2,1
 190:	00000000 	nop
 194:	05028000 	bltzl	t0,fffe0198 <SerialStat+0x402dfd9c>
 198:	13c8031a 	beq	s8,t0,e04 <INITLOCATE-0x7ffff1fc>
 19c:	014b4c4b 	0x14b4c4b
 1a0:	4b4b4b4b 	c2	0x14b4b4b
 1a4:	4b4b4b4b 	c2	0x14b4b4b
 1a8:	4b4b4b4b 	c2	0x14b4b4b
 1ac:	4b4b4b4d 	c2	0x14b4b4d
 1b0:	4b4b4b4b 	c2	0x14b4b4b
 1b4:	03114a4b 	0x3114a4b
 1b8:	4b4b4d4b 	c2	0x14b4d4b
 1bc:	4c4b4b4b 	0x4c4b4b4b
 1c0:	4b4b4b4c 	c2	0x14b4b4c
 1c4:	4b4b4c4b 	c2	0x14b4c4b
 1c8:	4d4b4b4c 	0x4d4b4b4c
 1cc:	4b4c4b4b 	c2	0x14c4b4b
 1d0:	4b4b4b4b 	c2	0x14b4b4b
 1d4:	4c4b4b4b 	0x4c4b4b4b
 1d8:	4b4d4b4b 	c2	0x14d4b4b
 1dc:	4c4b4b4b 	0x4c4b4b4b
 1e0:	4b4b4d4b 	c2	0x14b4d4b
 1e4:	4b4b4b4b 	c2	0x14b4b4b
 1e8:	4b4c4b4b 	c2	0x14c4b4b
 1ec:	4b4b4d4b 	c2	0x14b4d4b
 1f0:	4b4c4b4b 	c2	0x14c4b4b
 1f4:	4b4b4b4b 	c2	0x14b4b4b
 1f8:	4c4b4b4b 	0x4c4b4b4b
 1fc:	4b4b4b4c 	c2	0x14b4b4c
 200:	4b4b4b4b 	c2	0x14b4b4b
 204:	4d4b4c4b 	0x4d4b4c4b
 208:	4b4f4d4b 	c2	0x14f4d4b
 20c:	4b4b4c4b 	c2	0x14b4c4b
 210:	4b4b4b4b 	c2	0x14b4b4b
 214:	4b4b4b4b 	c2	0x14b4b4b
 218:	4b4b4b4b 	c2	0x14b4b4b
 21c:	4b4b4b4b 	c2	0x14b4b4b
 220:	4b4b4b4b 	c2	0x14b4b4b
 224:	4b4b4b4d 	c2	0x14b4b4d
 228:	4b4b4c4b 	c2	0x14b4c4b
 22c:	4b4e4b4d 	c2	0x14e4b4d
 230:	4c4b4c4b 	0x4c4b4c4b
 234:	4b4b4b4b 	c2	0x14b4b4b
 238:	4b4b4b4b 	c2	0x14b4b4b
 23c:	4b4b4b4b 	c2	0x14b4b4b
 240:	4b4b4b4b 	c2	0x14b4b4b
 244:	4b4b4b4b 	c2	0x14b4b4b
 248:	4b4b4b4d 	c2	0x14b4b4d
 24c:	4b4b4c4b 	c2	0x14b4c4b
 250:	4b4b4c4b 	c2	0x14b4c4b
 254:	4d4b0204 	0x4d4b0204
 258:	00010100 	sll	zero,at,0x4
 25c:	00003800 	sll	a3,zero,0x0
 260:	02000000 	0x2000000
 264:	220101fb 	addi	at,s0,507
 268:	0e0d0001 	jal	8340004 <INITLOCATE-0x77cbfffc>
 26c:	01010100 	0x1010100
 270:	00000100 	sll	zero,zero,0x4
 274:	00016b65 	0x16b65
 278:	726e0000 	madd	s3,t6
 27c:	74726170 	jalx	1c985c0 <INITLOCATE-0x7e367a40>
 280:	2e530001 	sltiu	s3,s2,1
 284:	00000000 	nop
 288:	05028000 	bltzl	t0,fffe028c <SerialStat+0x402dfe90>
 28c:	16a80314 	bne	s5,t0,ee0 <INITLOCATE-0x7ffff120>
 290:	014b0204 	0x14b0204
 294:	00010100 	sll	zero,at,0x4
 298:	00003900 	sll	a3,zero,0x4
 29c:	02000000 	0x2000000
 2a0:	230101fb 	addi	at,t8,507
 2a4:	0e0d0001 	jal	8340004 <INITLOCATE-0x77cbfffc>
 2a8:	01010100 	0x1010100
 2ac:	00000100 	sll	zero,zero,0x4
 2b0:	00016b65 	0x16b65
 2b4:	726e0000 	madd	s3,t6
 2b8:	73636865 	s8sdi	xr1,k1,-38,ptn0
 2bc:	642e5300 	0x642e5300
 2c0:	01000000 	0x1000000
 2c4:	00050280 	sll	zero,a1,0xa
 2c8:	0016b003 	sra	s6,s6,0x0
 2cc:	1d014b02 	0x1d014b02
 2d0:	04000101 	bltz	zero,6d8 <INITLOCATE-0x7ffff928>
 2d4:	00000077 	0x77
 2d8:	00020000 	sll	zero,v0,0x0
 2dc:	00220101 	0x220101
 2e0:	fb0e0d00 	sdc2	$14,3328(t8)
 2e4:	01010101 	0x1010101
 2e8:	00000001 	movf	zero,zero,$fcc0
 2ec:	0000016b 	0x16b
 2f0:	65726e00 	0x65726e00
 2f4:	00746573 	tltu	v1,s4,0x195
 2f8:	742e5300 	jalx	b94c00 <INITLOCATE-0x7f46b400>
 2fc:	01000000 	0x1000000
 300:	00050280 	sll	zero,a1,0xa
 304:	00200003 	0x200003
 308:	18014b4b 	0x18014b4b
 30c:	03194a4b 	0x3194a4b
 310:	4b4b4c4b 	c2	0x14b4c4b
 314:	4b4b4b4b 	c2	0x14b4b4b
 318:	4b4b4b03 	c2	0x14b4b03
 31c:	094a4b4b 	j	5292d2c <INITLOCATE-0x7ad6d2d4>
 320:	4b4c4b4b 	c2	0x14c4b4b
 324:	4b4b4b4b 	c2	0x14b4b4b
 328:	4b4b4b4b 	c2	0x14b4b4b
 32c:	4b4b4b03 	c2	0x14b4b03
 330:	094a4c4b 	j	529312c <INITLOCATE-0x7ad6ced4>
 334:	4b4b4c4b 	c2	0x14b4c4b
 338:	4c4b4b4b 	0x4c4b4b4b
 33c:	03094a4b 	0x3094a4b
 340:	4c4b4b4b 	0x4c4b4b4b
 344:	4b4b4b4b 	c2	0x14b4b4b
 348:	4b4b0204 	c2	0x14b0204
 34c:	Address 0x000000000000034c is out of bounds.


Disassembly of section .debug_info:

00000000 <.debug_info>:
   0:	0000005b 	0x5b
   4:	00020000 	sll	zero,v0,0x0
   8:	00000401 	0x401
   c:	00000000 	nop
  10:	80001190 	lb	zero,4496(zero)
  14:	8000127c 	lb	zero,4732(zero)
  18:	6b65726e 	0x6b65726e
  1c:	2f757469 	sltiu	s5,k1,29801
  20:	6c732e53 	0x6c732e53
  24:	002f6d6e 	0x2f6d6e
  28:	742f6867 	jalx	bda19c <INITLOCATE-0x7f425e64>
  2c:	66732f53 	0x66732f53
  30:	68617265 	0x68617265
  34:	642f7375 	0x642f7375
  38:	70657276 	0x70657276
  3c:	69736f72 	0x69736f72
  40:	2d33322f 	sltiu	s3,t1,12847
  44:	6b65726e 	0x6b65726e
  48:	656c2d65 	0x656c2d65
  4c:	6200474e 	0x6200474e
  50:	55204153 	bnezl	t1,105a0 <INITLOCATE-0x7ffefa60>
  54:	20322e32 	addi	s2,at,11826
  58:	342e3930 	ori	t6,at,0x3930
  5c:	00800100 	0x800100
  60:	00005600 	sll	t2,zero,0x18
  64:	02000000 	0x2000000
  68:	14040100 	bne	zero,a0,46c <INITLOCATE-0x7ffffb94>
  6c:	00007a00 	sll	t7,zero,0x8
  70:	0000006b 	0x6b
  74:	65726e2f 	0x65726e2f
  78:	65766563 	0x65766563
  7c:	2e53002f 	sltiu	s3,s2,47
  80:	6d6e742f 	0x6d6e742f
  84:	68676673 	0x68676673
  88:	2f536861 	sltiu	s3,k0,26721
  8c:	7265642f 	0x7265642f
  90:	73757065 	s8sdi	xr1,k1,92,
  94:	72766973 	d32sar	xr5,xr10,xr9,xr13,9
  98:	6f722d33 	0x6f722d33
  9c:	322f6b65 	andi	t7,s1,0x6b65
  a0:	726e656c 	s16ldi	xr5,s3,-206,ptn1
  a4:	2d656200 	sltiu	a1,t3,25088
  a8:	474e5520 	bz.w	$w14,1552c <INITLOCATE-0x7ffeaad4>
  ac:	41532032 	0x41532032
  b0:	2e32342e 	sltiu	s2,s1,13358
  b4:	39300080 	xori	s0,t1,0x80
  b8:	01000000 	0x1000000
  bc:	5a000200 	blezl	s0,8c0 <INITLOCATE-0x7ffff740>
  c0:	00002604 	0x2604
  c4:	01000000 	0x1000000
  c8:	d9800012 	ldc2	$0,18(t4)
  cc:	7c800013 	shll.qb	zero,zero,0x4
  d0:	c86b6572 	lwc2	$11,25970(v1)
  d4:	6e2f696e 	0x6e2f696e
  d8:	69742e53 	0x69742e53
  dc:	002f6d6e 	0x2f6d6e
  e0:	742f6867 	jalx	bda19c <INITLOCATE-0x7f425e64>
  e4:	66732f53 	0x66732f53
  e8:	68617265 	0x68617265
  ec:	642f7375 	0x642f7375
  f0:	70657276 	0x70657276
  f4:	69736f72 	0x69736f72
  f8:	2d33322f 	sltiu	s3,t1,12847
  fc:	6b65726e 	0x6b65726e
 100:	656c2d65 	0x656c2d65
 104:	6200474e 	0x6200474e
 108:	55204153 	bnezl	t1,10658 <INITLOCATE-0x7ffef9a8>
 10c:	20322e32 	addi	s2,at,11826
 110:	342e3930 	ori	t6,at,0x3930
 114:	00800100 	0x800100
 118:	00005b00 	sll	t3,zero,0xc
 11c:	02000000 	0x2000000
 120:	3a040100 	xori	a0,s0,0x100
 124:	00016680 	sll	t4,at,0x1a
 128:	0013c880 	sll	t9,s3,0x2
 12c:	0016a86b 	0x16a86b
 130:	65726e2f 	0x65726e2f
 134:	7368656c 	s16ldi	xr5,k1,50,ptn1
 138:	6c2e5300 	0x6c2e5300
 13c:	2f6d6e74 	sltiu	t5,k1,28276
 140:	2f686766 	sltiu	t0,k1,26470
 144:	732f5368 	lxhu	t2,t9,t7,1
 148:	61726564 	0x61726564
 14c:	2f737570 	sltiu	s3,k1,30064
 150:	65727669 	0x65727669
 154:	736f722d 	s16sdi	xr8,k1,-72,ptn1
 158:	33322f6b 	andi	s2,t9,0x2f6b
 15c:	65726e65 	0x65726e65
 160:	6c2d6562 	0x6c2d6562
 164:	00474e55 	0x474e55
 168:	20415320 	addi	at,v0,21280
 16c:	322e3234 	andi	t6,s1,0x3234
 170:	2e393000 	sltiu	t9,s1,12288
 174:	80010000 	lb	at,0(zero)
 178:	005a0002 	0x5a0002
 17c:	0000004e 	0x4e
 180:	04010000 	b	184 <INITLOCATE-0x7ffffe7c>
 184:	025b8000 	0x25b8000
 188:	16a88000 	bne	s5,t0,fffe018c <SerialStat+0x402dfd90>
 18c:	16b06b65 	bne	s5,s0,1af24 <INITLOCATE-0x7ffe50dc>
 190:	726e2f74 	q16sll	xr13,xr11,xr8,xr11,9
 194:	7261702e 	0x7261702e
 198:	53002f6d 	beqzl	t8,bf50 <INITLOCATE-0x7fff40b0>
 19c:	6e742f68 	0x6e742f68
 1a0:	6766732f 	0x6766732f
 1a4:	53686172 	beql	k1,t0,18770 <INITLOCATE-0x7ffe7890>
 1a8:	65642f73 	0x65642f73
 1ac:	75706572 	jalx	5c195c8 <INITLOCATE-0x7a3e6a38>
 1b0:	7669736f 	jalx	9a5cdbc <INITLOCATE-0x765a3244>
 1b4:	722d3332 	0x722d3332
 1b8:	2f6b6572 	sltiu	t3,k1,25970
 1bc:	6e656c2d 	0x6e656c2d
 1c0:	65620047 	0x65620047
 1c4:	4e552041 	c3	0x552041
 1c8:	5320322e 	beqzl	t9,ca84 <INITLOCATE-0x7fff357c>
 1cc:	32342e39 	andi	s4,s1,0x2e39
 1d0:	30008001 	andi	zero,zero,0x8001
 1d4:	0000005b 	0x5b
 1d8:	00020000 	sll	zero,v0,0x0
 1dc:	00620401 	0x620401
 1e0:	00000297 	0x297
 1e4:	800016b0 	lb	zero,5808(zero)
 1e8:	800016b8 	lb	zero,5816(zero)
 1ec:	6b65726e 	0x6b65726e
 1f0:	2f736368 	sltiu	s3,k1,25448
 1f4:	65642e53 	0x65642e53
 1f8:	002f6d6e 	0x2f6d6e
 1fc:	742f6867 	jalx	bda19c <INITLOCATE-0x7f425e64>
 200:	66732f53 	0x66732f53
 204:	68617265 	0x68617265
 208:	642f7375 	0x642f7375
 20c:	70657276 	0x70657276
 210:	69736f72 	0x69736f72
 214:	2d33322f 	sltiu	s3,t1,12847
 218:	6b65726e 	0x6b65726e
 21c:	656c2d65 	0x656c2d65
 220:	6200474e 	0x6200474e
 224:	55204153 	bnezl	t1,10774 <INITLOCATE-0x7ffef88c>
 228:	20322e32 	addi	s2,at,11826
 22c:	342e3930 	ori	t6,at,0x3930
 230:	00800100 	0x800100
 234:	00005a00 	sll	t3,zero,0x8
 238:	02000000 	0x2000000
 23c:	76040100 	jalx	8100400 <INITLOCATE-0x77effc00>
 240:	0002d480 	sll	k0,v0,0x12
 244:	00200080 	0x200080
 248:	0020e46b 	0x20e46b
 24c:	65726e2f 	0x65726e2f
 250:	74657374 	jalx	195cdd0 <INITLOCATE-0x7e6a3230>
 254:	2e53002f 	sltiu	s3,s2,47
 258:	6d6e742f 	0x6d6e742f
 25c:	68676673 	0x68676673
 260:	2f536861 	sltiu	s3,k0,26721
 264:	7265642f 	0x7265642f
 268:	73757065 	s8sdi	xr1,k1,92,
 26c:	72766973 	d32sar	xr5,xr10,xr9,xr13,9
 270:	6f722d33 	0x6f722d33
 274:	322f6b65 	andi	t7,s1,0x6b65
 278:	726e656c 	s16ldi	xr5,s3,-206,ptn1
 27c:	2d656200 	sltiu	a1,t3,25088
 280:	474e5520 	bz.w	$w14,15704 <INITLOCATE-0x7ffea8fc>
 284:	41532032 	0x41532032
 288:	2e32342e 	sltiu	s2,s1,13358
 28c:	39300080 	xori	s0,t1,0x80
 290:	Address 0x0000000000000290 is out of bounds.


Disassembly of section .debug_abbrev:

00000000 <.debug_abbrev>:
   0:	01110010 	0x1110010
   4:	06110112 	bgezal	s0,450 <INITLOCATE-0x7ffffbb0>
   8:	0103081b 	0x103081b
   c:	08250813 	j	94204c <INITLOCATE-0x7f6bdfb4>
  10:	05000000 	bltz	t0,14 <INITLOCATE-0x7fffffec>
  14:	01110010 	0x1110010
  18:	06550603 	0x6550603
  1c:	081b0825 	j	6c2094 <INITLOCATE-0x7f93df6c>
  20:	08130500 	j	4c1400 <INITLOCATE-0x7fb3ec00>
  24:	00000111 	0x111
  28:	00100611 	0x100611
  2c:	01120103 	0x1120103
  30:	081b0825 	j	6c2094 <INITLOCATE-0x7f93df6c>
  34:	08130500 	j	4c1400 <INITLOCATE-0x7fb3ec00>
  38:	00000111 	0x111
  3c:	00100611 	0x100611
  40:	01120103 	0x1120103
  44:	081b0825 	j	6c2094 <INITLOCATE-0x7f93df6c>
  48:	08130500 	j	4c1400 <INITLOCATE-0x7fb3ec00>
  4c:	00000111 	0x111
  50:	00100611 	0x100611
  54:	01120103 	0x1120103
  58:	081b0825 	j	6c2094 <INITLOCATE-0x7f93df6c>
  5c:	08130500 	j	4c1400 <INITLOCATE-0x7fb3ec00>
  60:	00000111 	0x111
  64:	00100611 	0x100611
  68:	01120103 	0x1120103
  6c:	081b0825 	j	6c2094 <INITLOCATE-0x7f93df6c>
  70:	08130500 	j	4c1400 <INITLOCATE-0x7fb3ec00>
  74:	00000111 	0x111
  78:	00100611 	0x100611
  7c:	01120103 	0x1120103
  80:	081b0825 	j	6c2094 <INITLOCATE-0x7f93df6c>
  84:	08130500 	j	4c1400 <INITLOCATE-0x7fb3ec00>
  88:	Address 0x0000000000000088 is out of bounds.


Disassembly of section .debug_aranges:

00000000 <.debug_aranges>:
   0:	0000001c 	0x1c
   4:	00020000 	sll	zero,v0,0x0
   8:	00000400 	sll	zero,zero,0x10
   c:	00000000 	nop
  10:	80001190 	lb	zero,4496(zero)
  14:	000000ec 	0xec
	...
  20:	0000002c 	0x2c
  24:	00020000 	sll	zero,v0,0x0
  28:	005f0400 	0x5f0400
  2c:	00000000 	nop
  30:	80000000 	lb	zero,0(zero)
  34:	00000010 	mfhi	zero
  38:	80001180 	lb	zero,4480(zero)
  3c:	00000010 	mfhi	zero
  40:	80001000 	lb	zero,4096(zero)
  44:	00000004 	sllv	zero,zero,zero
	...
  50:	0000001c 	0x1c
  54:	00020000 	sll	zero,v0,0x0
  58:	00b90400 	0xb90400
  5c:	00000000 	nop
  60:	8000127c 	lb	zero,4732(zero)
  64:	0000014c 	syscall	0x5
	...
  70:	0000001c 	0x1c
  74:	00020000 	sll	zero,v0,0x0
  78:	01170400 	0x1170400
  7c:	00000000 	nop
  80:	800013c8 	lb	zero,5064(zero)
  84:	000002e0 	0x2e0
	...
  90:	0000001c 	0x1c
  94:	00020000 	sll	zero,v0,0x0
  98:	01760400 	0x1760400
  9c:	00000000 	nop
  a0:	800016a8 	lb	zero,5800(zero)
  a4:	00000008 	jr	zero
  a8:	00000000 	nop
  ac:	00000000 	nop
  b0:	0000001c 	0x1c
  b4:	00020000 	sll	zero,v0,0x0
  b8:	01d40400 	0x1d40400
  bc:	00000000 	nop
  c0:	800016b0 	lb	zero,5808(zero)
  c4:	00000008 	jr	zero
  c8:	00000000 	nop
  cc:	00000000 	nop
  d0:	0000001c 	0x1c
  d4:	00020000 	sll	zero,v0,0x0
  d8:	02330400 	0x2330400
  dc:	00000000 	nop
  e0:	80002000 	lb	zero,8192(zero)
  e4:	000000e4 	0xe4
	...

Disassembly of section .debug_ranges:

00000000 <.debug_ranges>:
   0:	ffffffff 	sdc3	$31,-1(ra)
   4:	00000000 	nop
   8:	80000000 	lb	zero,0(zero)
   c:	80000010 	lb	zero,16(zero)
  10:	80001180 	lb	zero,4480(zero)
  14:	80001190 	lb	zero,4496(zero)
  18:	80001000 	lb	zero,4096(zero)
  1c:	80001004 	lb	zero,4100(zero)
	...
